target datalayout = "e-m:e-p270:32:32-p271:32:32-p272:64:64-i64:64-i128:128-f80:128-n8:16:32:64-S128"
target triple = "x86_64-pc-linux-gnu"

@.str = private unnamed_addr constant [32 x i8] c"../openssl/crypto/ec/ec_pmeth.c\00", align 1
@.str.1 = private unnamed_addr constant [18 x i8] c"ec_paramgen_curve\00", align 1
@__func__.pkey_ec_ctrl_str = private unnamed_addr constant [17 x i8] c"pkey_ec_ctrl_str\00", align 1
@.str.2 = private unnamed_addr constant [13 x i8] c"ec_param_enc\00", align 1
@.str.3 = private unnamed_addr constant [9 x i8] c"explicit\00", align 1
@.str.4 = private unnamed_addr constant [12 x i8] c"named_curve\00", align 1
@.str.5 = private unnamed_addr constant [12 x i8] c"ecdh_kdf_md\00", align 1
@.str.6 = private unnamed_addr constant [19 x i8] c"ecdh_cofactor_mode\00", align 1

; Function Attrs: inlinehint nounwind willreturn memory(read) uwtable
define available_externally i32 @atoi(ptr noundef nonnull %0) #5 {
  %2 = alloca ptr, align 8
  store ptr %0, ptr %2, align 8, !tbaa !39
  %3 = load ptr, ptr %2, align 8, !tbaa !39
  %4 = call i64 @strtol(ptr noundef %3, ptr noundef null, i32 noundef 10) #7
  %5 = trunc i64 %4 to i32
  ret i32 %5
}

; Function Attrs: nounwind uwtable
define internal i32 @pkey_ec_ctrl_str(ptr noundef %0, ptr noundef %1, ptr noundef %2) #0 {
  %4 = alloca i32, align 4
  %5 = alloca ptr, align 8
  %6 = alloca ptr, align 8
  %7 = alloca ptr, align 8
  %8 = alloca i32, align 4
  %9 = alloca i32, align 4
  %10 = alloca i32, align 4
  %11 = alloca ptr, align 8
  %12 = alloca i32, align 4
  store ptr %0, ptr %5, align 8, !tbaa !3
  store ptr %1, ptr %6, align 8, !tbaa !39
  store ptr %2, ptr %7, align 8, !tbaa !39
  %13 = load ptr, ptr %6, align 8, !tbaa !39
  %14 = call i32 @strcmp(ptr noundef %13, ptr noundef @.str.1) #8
  %15 = icmp eq i32 %14, 0
  br i1 %15, label %16, label %39

16:                                               ; preds = %3
  call void @llvm.lifetime.start.p0(i64 4, ptr %8) #7
  %17 = load ptr, ptr %7, align 8, !tbaa !39
  %18 = call i32 @EC_curve_nist2nid(ptr noundef %17)
  store i32 %18, ptr %8, align 4, !tbaa !37
  %19 = load i32, ptr %8, align 4, !tbaa !37
  %20 = icmp eq i32 %19, 0
  br i1 %20, label %21, label %24

21:                                               ; preds = %16
  %22 = load ptr, ptr %7, align 8, !tbaa !39
  %23 = call i32 @OBJ_sn2nid(ptr noundef %22)
  store i32 %23, ptr %8, align 4, !tbaa !37
  br label %24

24:                                               ; preds = %21, %16
  %25 = load i32, ptr %8, align 4, !tbaa !37
  %26 = icmp eq i32 %25, 0
  br i1 %26, label %27, label %30

27:                                               ; preds = %24
  %28 = load ptr, ptr %7, align 8, !tbaa !39
  %29 = call i32 @OBJ_ln2nid(ptr noundef %28)
  store i32 %29, ptr %8, align 4, !tbaa !37
  br label %30

30:                                               ; preds = %27, %24
  %31 = load i32, ptr %8, align 4, !tbaa !37
  %32 = icmp eq i32 %31, 0
  br i1 %32, label %33, label %34

33:                                               ; preds = %30
  call void @ERR_new()
  call void @ERR_set_debug(ptr noundef @.str, i32 noundef 399, ptr noundef @__func__.pkey_ec_ctrl_str)
  call void (i32, i32, ptr, ...) @ERR_set_error(i32 noundef 16, i32 noundef 141, ptr noundef null)
  store i32 0, ptr %4, align 4
  store i32 1, ptr %9, align 4
  br label %38

34:                                               ; preds = %30
  %35 = load ptr, ptr %5, align 8, !tbaa !3
  %36 = load i32, ptr %8, align 4, !tbaa !37
  %37 = call i32 @EVP_PKEY_CTX_set_ec_paramgen_curve_nid(ptr noundef %35, i32 noundef %36)
  store i32 %37, ptr %4, align 4
  store i32 1, ptr %9, align 4
  br label %38

38:                                               ; preds = %34, %33
  call void @llvm.lifetime.end.p0(i64 4, ptr %8) #7
  br label %88

39:                                               ; preds = %3
  %40 = load ptr, ptr %6, align 8, !tbaa !39
  %41 = call i32 @strcmp(ptr noundef %40, ptr noundef @.str.2) #8
  %42 = icmp eq i32 %41, 0
  br i1 %42, label %43, label %60

43:                                               ; preds = %39
  call void @llvm.lifetime.start.p0(i64 4, ptr %10) #7
  %44 = load ptr, ptr %7, align 8, !tbaa !39
  %45 = call i32 @strcmp(ptr noundef %44, ptr noundef @.str.3) #8
  %46 = icmp eq i32 %45, 0
  br i1 %46, label %47, label %48

47:                                               ; preds = %43
  store i32 0, ptr %10, align 4, !tbaa !37
  br label %55

48:                                               ; preds = %43
  %49 = load ptr, ptr %7, align 8, !tbaa !39
  %50 = call i32 @strcmp(ptr noundef %49, ptr noundef @.str.4) #8
  %51 = icmp eq i32 %50, 0
  br i1 %51, label %52, label %53

52:                                               ; preds = %48
  store i32 1, ptr %10, align 4, !tbaa !37
  br label %54

53:                                               ; preds = %48
  store i32 -2, ptr %4, align 4
  store i32 1, ptr %9, align 4
  br label %59

54:                                               ; preds = %52
  br label %55

55:                                               ; preds = %54, %47
  %56 = load ptr, ptr %5, align 8, !tbaa !3
  %57 = load i32, ptr %10, align 4, !tbaa !37
  %58 = call i32 @EVP_PKEY_CTX_set_ec_param_enc(ptr noundef %56, i32 noundef %57)
  store i32 %58, ptr %4, align 4
  store i32 1, ptr %9, align 4
  br label %59

59:                                               ; preds = %55, %53
  call void @llvm.lifetime.end.p0(i64 4, ptr %10) #7
  br label %88

60:                                               ; preds = %39
  %61 = load ptr, ptr %6, align 8, !tbaa !39
  %62 = call i32 @strcmp(ptr noundef %61, ptr noundef @.str.5) #8
  %63 = icmp eq i32 %62, 0
  br i1 %63, label %64, label %74

64:                                               ; preds = %60
  call void @llvm.lifetime.start.p0(i64 8, ptr %11) #7
  %65 = load ptr, ptr %7, align 8, !tbaa !39
  %66 = call ptr @EVP_get_digestbyname(ptr noundef %65)
  store ptr %66, ptr %11, align 8, !tbaa !63
  %67 = icmp eq ptr %66, null
  br i1 %67, label %68, label %69

68:                                               ; preds = %64
  call void @ERR_new()
  call void @ERR_set_debug(ptr noundef @.str, i32 noundef 415, ptr noundef @__func__.pkey_ec_ctrl_str)
  call void (i32, i32, ptr, ...) @ERR_set_error(i32 noundef 16, i32 noundef 151, ptr noundef null)
  store i32 0, ptr %4, align 4
  store i32 1, ptr %9, align 4
  br label %73

69:                                               ; preds = %64
  %70 = load ptr, ptr %5, align 8, !tbaa !3
  %71 = load ptr, ptr %11, align 8, !tbaa !63
  %72 = call i32 @EVP_PKEY_CTX_set_ecdh_kdf_md(ptr noundef %70, ptr noundef %71)
  store i32 %72, ptr %4, align 4
  store i32 1, ptr %9, align 4
  br label %73

73:                                               ; preds = %69, %68
  call void @llvm.lifetime.end.p0(i64 8, ptr %11) #7
  br label %88

74:                                               ; preds = %60
  %75 = load ptr, ptr %6, align 8, !tbaa !39
  %76 = call i32 @strcmp(ptr noundef %75, ptr noundef @.str.6) #8
  %77 = icmp eq i32 %76, 0
  br i1 %77, label %78, label %84

78:                                               ; preds = %74
  call void @llvm.lifetime.start.p0(i64 4, ptr %12) #7
  %79 = load ptr, ptr %7, align 8, !tbaa !39
  %80 = call i32 @atoi(ptr noundef %79) #8
  store i32 %80, ptr %12, align 4, !tbaa !37
  %81 = load ptr, ptr %5, align 8, !tbaa !3
  %82 = load i32, ptr %12, align 4, !tbaa !37
  %83 = call i32 @EVP_PKEY_CTX_set_ecdh_cofactor_mode(ptr noundef %81, i32 noundef %82)
  store i32 %83, ptr %4, align 4
  store i32 1, ptr %9, align 4
  call void @llvm.lifetime.end.p0(i64 4, ptr %12) #7
  br label %88

84:                                               ; preds = %74
  br label %85

85:                                               ; preds = %84
  br label %86

86:                                               ; preds = %85
  br label %87

87:                                               ; preds = %86
  store i32 -2, ptr %4, align 4
  br label %88

88:                                               ; preds = %87, %78, %73, %59, %38
  %89 = load i32, ptr %4, align 4
  ret i32 %89
}