; Function Attrs: nounwind uwtable
define internal i32 @pkey_ec_ctrl_str(ptr noundef %0, ptr noundef readonly captures(none) %1, ptr noundef %2) #1 {
  %4 = tail call i32 @strcmp(ptr noundef nonnull dereferenceable(1) %1, ptr noundef nonnull dereferenceable(18) @.str.1) #7
  %5 = icmp eq i32 %4, 0
  br i1 %5, label %6, label %17

6:                                                ; preds = %3
  %7 = tail call i32 @EC_curve_nist2nid(ptr noundef %2) #6
  %8 = icmp eq i32 %7, 0
  br i1 %8, label %9, label %.thread28

9:                                                ; preds = %6
  %10 = tail call i32 @OBJ_sn2nid(ptr noundef %2) #6
  %11 = icmp eq i32 %10, 0
  br i1 %11, label %12, label %.thread28

12:                                               ; preds = %9
  %13 = tail call i32 @OBJ_ln2nid(ptr noundef %2) #6
  %14 = icmp eq i32 %13, 0
  br i1 %14, label %15, label %.thread28

15:                                               ; preds = %12
  tail call void @ERR_new() #6
  tail call void @ERR_set_debug(ptr noundef nonnull @.str, i32 noundef 399, ptr noundef nonnull @__func__.pkey_ec_ctrl_str) #6
  tail call void (i32, i32, ptr, ...) @ERR_set_error(i32 noundef 16, i32 noundef 141, ptr noundef null) #6
  br label %44

.thread28:                                        ; preds = %6, %9, %12
  %.12330 = phi i32 [ %13, %12 ], [ %10, %9 ], [ %7, %6 ]
  %16 = tail call i32 @EVP_PKEY_CTX_set_ec_paramgen_curve_nid(ptr noundef %0, i32 noundef %.12330) #6
  br label %44

17:                                               ; preds = %3
  %18 = tail call i32 @strcmp(ptr noundef nonnull dereferenceable(1) %1, ptr noundef nonnull dereferenceable(13) @.str.2) #7
  %19 = icmp eq i32 %18, 0
  br i1 %19, label %20, label %28

20:                                               ; preds = %17
  %21 = tail call i32 @strcmp(ptr noundef nonnull dereferenceable(1) %2, ptr noundef nonnull dereferenceable(9) @.str.3) #7
  %22 = icmp eq i32 %21, 0
  br i1 %22, label %26, label %23

23:                                               ; preds = %20
  %24 = tail call i32 @strcmp(ptr noundef nonnull dereferenceable(1) %2, ptr noundef nonnull dereferenceable(12) @.str.4) #7
  %25 = icmp eq i32 %24, 0
  br i1 %25, label %26, label %44

26:                                               ; preds = %23, %20
  %.024 = phi i32 [ 0, %20 ], [ 1, %23 ]
  %27 = tail call i32 @EVP_PKEY_CTX_set_ec_param_enc(ptr noundef %0, i32 noundef %.024) #6
  br label %44

28:                                               ; preds = %17
  %29 = tail call i32 @strcmp(ptr noundef nonnull dereferenceable(1) %1, ptr noundef nonnull dereferenceable(12) @.str.5) #7
  %30 = icmp eq i32 %29, 0
  br i1 %30, label %31, label %37

31:                                               ; preds = %28
  %32 = tail call ptr @EVP_get_digestbyname(ptr noundef %2) #6
  %33 = icmp eq ptr %32, null
  br i1 %33, label %34, label %35

34:                                               ; preds = %31
  tail call void @ERR_new() #6
  tail call void @ERR_set_debug(ptr noundef nonnull @.str, i32 noundef 415, ptr noundef nonnull @__func__.pkey_ec_ctrl_str) #6
  tail call void (i32, i32, ptr, ...) @ERR_set_error(i32 noundef 16, i32 noundef 151, ptr noundef null) #6
  br label %44

35:                                               ; preds = %31
  %36 = tail call i32 @EVP_PKEY_CTX_set_ecdh_kdf_md(ptr noundef %0, ptr noundef nonnull %32) #6
  br label %44

37:                                               ; preds = %28
  %38 = tail call i32 @strcmp(ptr noundef nonnull dereferenceable(1) %1, ptr noundef nonnull dereferenceable(19) @.str.6) #7
  %39 = icmp eq i32 %38, 0
  br i1 %39, label %40, label %44

40:                                               ; preds = %37
  %41 = tail call i64 @strtol(ptr noundef nonnull captures(none) %2, ptr noundef null, i32 noundef 10) #6
  %42 = trunc i64 %41 to i32
  %43 = tail call i32 @EVP_PKEY_CTX_set_ecdh_cofactor_mode(ptr noundef %0, i32 noundef %42) #6
  br label %44

44:                                               ; preds = %37, %34, %35, %26, %23, %15, %.thread28, %40
  %.1 = phi i32 [ %43, %40 ], [ 0, %15 ], [ %16, %.thread28 ], [ %27, %26 ], [ -2, %23 ], [ 0, %34 ], [ %36, %35 ], [ -2, %37 ]
  ret i32 %.1
}